(dp0
S'Austin'
p1
(dp2
S'wm'
p3
F38.34667576224846
sS'fridge'
p4
F68.10958668445414
sS'hvac'
p5
F45.053748985886216
ssS'SanDiego'
p6
(dp7
g3
F22.748133580238104
sg4
F74.31222183197694
sg5
F15.479357912777836
ss.