(lp0
(lp1
cnumpy.core.multiarray
scalar
p2
(cnumpy
dtype
p3
(S'i8'
p4
I0
I1
tp5
Rp6
(I3
S'<'
p7
NNNI-1
I-1
I0
tp8
bS'\xaa\x05\x00\x00\x00\x00\x00\x00'
p9
tp10
Rp11
ag2
(g6
S'\xcb\x00\x00\x00\x00\x00\x00\x00'
p12
tp13
Rp14
aa(lp15
g2
(g6
S'\xf4\x05\x00\x00\x00\x00\x00\x00'
p16
tp17
Rp18
ag14
aa(lp19
g2
(g6
S'\xc3\x06\x00\x00\x00\x00\x00\x00'
p20
tp21
Rp22
ag14
aa(lp23
g2
(g6
S'g\x0e\x00\x00\x00\x00\x00\x00'
p24
tp25
Rp26
ag14
aa(lp27
g14
ag2
(g6
S'\x18\x0f\x00\x00\x00\x00\x00\x00'
p28
tp29
Rp30
aa(lp31
g14
ag2
(g6
S'b\x0f\x00\x00\x00\x00\x00\x00'
p32
tp33
Rp34
aa(lp35
g14
ag2
(g6
S'\x8f\x11\x00\x00\x00\x00\x00\x00'
p36
tp37
Rp38
aa(lp39
g14
ag2
(g6
S'F\x13\x00\x00\x00\x00\x00\x00'
p40
tp41
Rp42
aa(lp43
g14
ag2
(g6
S'2\x17\x00\x00\x00\x00\x00\x00'
p44
tp45
Rp46
aa(lp47
g14
ag2
(g6
S'\x93\x19\x00\x00\x00\x00\x00\x00'
p48
tp49
Rp50
aa(lp51
g14
ag2
(g6
S'\x96\x1b\x00\x00\x00\x00\x00\x00'
p52
tp53
Rp54
aa(lp55
g2
(g6
S'\xca\x1b\x00\x00\x00\x00\x00\x00'
p56
tp57
Rp58
ag14
aa(lp59
g2
(g6
S'}\x1f\x00\x00\x00\x00\x00\x00'
p60
tp61
Rp62
ag14
aa(lp63
g14
ag2
(g6
S'\x96 \x00\x00\x00\x00\x00\x00'
p64
tp65
Rp66
aa(lp67
g2
(g6
S'\x1d"\x00\x00\x00\x00\x00\x00'
p68
tp69
Rp70
ag14
aa(lp71
g14
ag2
(g6
S'/&\x00\x00\x00\x00\x00\x00'
p72
tp73
Rp74
aa(lp75
g18
ag11
aa(lp76
g11
ag22
aa(lp77
g11
ag26
aa(lp78
g11
ag30
aa(lp79
g11
ag34
aa(lp80
g11
ag38
aa(lp81
g11
ag42
aa(lp82
g11
ag46
aa(lp83
g11
ag50
aa(lp84
g11
ag54
aa(lp85
g11
ag58
aa(lp86
g62
ag11
aa(lp87
g11
ag66
aa(lp88
g11
ag70
aa(lp89
g11
ag74
aa(lp90
g18
ag22
aa(lp91
g18
ag26
aa(lp92
g18
ag30
aa(lp93
g18
ag34
aa(lp94
g18
ag38
aa(lp95
g18
ag42
aa(lp96
g18
ag46
aa(lp97
g18
ag50
aa(lp98
g18
ag54
aa(lp99
g18
ag58
aa(lp100
g62
ag18
aa(lp101
g18
ag66
aa(lp102
g70
ag18
aa(lp103
g18
ag74
aa(lp104
g22
ag26
aa(lp105
g22
ag30
aa(lp106
g22
ag34
aa(lp107
g22
ag38
aa(lp108
g22
ag42
aa(lp109
g22
ag46
aa(lp110
g22
ag50
aa(lp111
g22
ag54
aa(lp112
g22
ag58
aa(lp113
g62
ag22
aa(lp114
g22
ag66
aa(lp115
g70
ag22
aa(lp116
g22
ag74
aa(lp117
g26
ag30
aa(lp118
g26
ag34
aa(lp119
g26
ag38
aa(lp120
g26
ag42
aa(lp121
g26
ag46
aa(lp122
g26
ag50
aa(lp123
g54
ag26
aa(lp124
g58
ag26
aa(lp125
g62
ag26
aa(lp126
g26
ag66
aa(lp127
g70
ag26
aa(lp128
g74
ag26
aa(lp129
g30
ag34
aa(lp130
g30
ag38
aa(lp131
g42
ag30
aa(lp132
g46
ag30
aa(lp133
g30
ag50
aa(lp134
g54
ag30
aa(lp135
g58
ag30
aa(lp136
g62
ag30
aa(lp137
g30
ag66
aa(lp138
g70
ag30
aa(lp139
g30
ag74
aa(lp140
g34
ag38
aa(lp141
g42
ag34
aa(lp142
g46
ag34
aa(lp143
g50
ag34
aa(lp144
g54
ag34
aa(lp145
g58
ag34
aa(lp146
g62
ag34
aa(lp147
g34
ag66
aa(lp148
g70
ag34
aa(lp149
g34
ag74
aa(lp150
g42
ag38
aa(lp151
g46
ag38
aa(lp152
g50
ag38
aa(lp153
g54
ag38
aa(lp154
g58
ag38
aa(lp155
g62
ag38
aa(lp156
g38
ag66
aa(lp157
g70
ag38
aa(lp158
g38
ag74
aa(lp159
g42
ag46
aa(lp160
g42
ag50
aa(lp161
g42
ag54
aa(lp162
g58
ag42
aa(lp163
g62
ag42
aa(lp164
g42
ag66
aa(lp165
g70
ag42
aa(lp166
g42
ag74
aa(lp167
g46
ag50
aa(lp168
g46
ag54
aa(lp169
g58
ag46
aa(lp170
g62
ag46
aa(lp171
g46
ag66
aa(lp172
g70
ag46
aa(lp173
g46
ag74
aa(lp174
g54
ag50
aa(lp175
g58
ag50
aa(lp176
g62
ag50
aa(lp177
g50
ag66
aa(lp178
g70
ag50
aa(lp179
g74
ag50
aa(lp180
g58
ag54
aa(lp181
g62
ag54
aa(lp182
g54
ag66
aa(lp183
g70
ag54
aa(lp184
g54
ag74
aa(lp185
g62
ag58
aa(lp186
g58
ag66
aa(lp187
g70
ag58
aa(lp188
g58
ag74
aa(lp189
g62
ag66
aa(lp190
g62
ag70
aa(lp191
g62
ag74
aa(lp192
g70
ag66
aa(lp193
g74
ag66
aa(lp194
g70
ag74
aa.