(lp0
(lp1
cnumpy.core.multiarray
scalar
p2
(cnumpy
dtype
p3
(S'i8'
p4
I0
I1
tp5
Rp6
(I3
S'<'
p7
NNNI-1
I-1
I0
tp8
bS'\xaa\x05\x00\x00\x00\x00\x00\x00'
p9
tp10
Rp11
ag2
(g6
S'\xcb\x00\x00\x00\x00\x00\x00\x00'
p12
tp13
Rp14
aa(lp15
g2
(g6
S'\xf4\x05\x00\x00\x00\x00\x00\x00'
p16
tp17
Rp18
ag14
aa(lp19
g2
(g6
S'\xc3\x06\x00\x00\x00\x00\x00\x00'
p20
tp21
Rp22
ag14
aa(lp23
g2
(g6
S'.\n\x00\x00\x00\x00\x00\x00'
p24
tp25
Rp26
ag14
aa(lp27
g2
(g6
S'g\x0e\x00\x00\x00\x00\x00\x00'
p28
tp29
Rp30
ag14
aa(lp31
g14
ag2
(g6
S'\x18\x0f\x00\x00\x00\x00\x00\x00'
p32
tp33
Rp34
aa(lp35
g14
ag2
(g6
S'b\x0f\x00\x00\x00\x00\x00\x00'
p36
tp37
Rp38
aa(lp39
g14
ag2
(g6
S'\x8f\x11\x00\x00\x00\x00\x00\x00'
p40
tp41
Rp42
aa(lp43
g14
ag2
(g6
S'F\x13\x00\x00\x00\x00\x00\x00'
p44
tp45
Rp46
aa(lp47
g14
ag2
(g6
S'2\x17\x00\x00\x00\x00\x00\x00'
p48
tp49
Rp50
aa(lp51
g14
ag2
(g6
S'\x93\x19\x00\x00\x00\x00\x00\x00'
p52
tp53
Rp54
aa(lp55
g2
(g6
S'\x96\x1b\x00\x00\x00\x00\x00\x00'
p56
tp57
Rp58
ag14
aa(lp59
g2
(g6
S'\xca\x1b\x00\x00\x00\x00\x00\x00'
p60
tp61
Rp62
ag14
aa(lp63
g2
(g6
S'}\x1f\x00\x00\x00\x00\x00\x00'
p64
tp65
Rp66
ag14
aa(lp67
g14
ag2
(g6
S'\x96 \x00\x00\x00\x00\x00\x00'
p68
tp69
Rp70
aa(lp71
g2
(g6
S'\x1d"\x00\x00\x00\x00\x00\x00'
p72
tp73
Rp74
ag14
aa(lp75
g14
ag2
(g6
S'\xfd#\x00\x00\x00\x00\x00\x00'
p76
tp77
Rp78
aa(lp79
g2
(g6
S'\x8c%\x00\x00\x00\x00\x00\x00'
p80
tp81
Rp82
ag14
aa(lp83
g2
(g6
S'/&\x00\x00\x00\x00\x00\x00'
p84
tp85
Rp86
ag14
aa(lp87
g14
ag2
(g6
S'l&\x00\x00\x00\x00\x00\x00'
p88
tp89
Rp90
aa(lp91
g11
ag18
aa(lp92
g11
ag22
aa(lp93
g11
ag26
aa(lp94
g11
ag30
aa(lp95
g11
ag34
aa(lp96
g11
ag38
aa(lp97
g11
ag42
aa(lp98
g11
ag46
aa(lp99
g11
ag50
aa(lp100
g11
ag54
aa(lp101
g11
ag58
aa(lp102
g11
ag62
aa(lp103
g11
ag66
aa(lp104
g11
ag70
aa(lp105
g11
ag74
aa(lp106
g11
ag78
aa(lp107
g11
ag82
aa(lp108
g11
ag86
aa(lp109
g11
ag90
aa(lp110
g22
ag18
aa(lp111
g26
ag18
aa(lp112
g30
ag18
aa(lp113
g18
ag34
aa(lp114
g18
ag38
aa(lp115
g18
ag42
aa(lp116
g18
ag46
aa(lp117
g18
ag50
aa(lp118
g18
ag54
aa(lp119
g18
ag58
aa(lp120
g18
ag62
aa(lp121
g66
ag18
aa(lp122
g18
ag70
aa(lp123
g74
ag18
aa(lp124
g18
ag78
aa(lp125
g18
ag82
aa(lp126
g18
ag86
aa(lp127
g18
ag90
aa(lp128
g26
ag22
aa(lp129
g22
ag30
aa(lp130
g22
ag34
aa(lp131
g22
ag38
aa(lp132
g22
ag42
aa(lp133
g22
ag46
aa(lp134
g22
ag50
aa(lp135
g22
ag54
aa(lp136
g22
ag58
aa(lp137
g22
ag62
aa(lp138
g22
ag66
aa(lp139
g22
ag70
aa(lp140
g74
ag22
aa(lp141
g22
ag78
aa(lp142
g22
ag82
aa(lp143
g22
ag86
aa(lp144
g22
ag90
aa(lp145
g26
ag30
aa(lp146
g26
ag34
aa(lp147
g26
ag38
aa(lp148
g26
ag42
aa(lp149
g26
ag46
aa(lp150
g26
ag50
aa(lp151
g26
ag54
aa(lp152
g26
ag58
aa(lp153
g26
ag62
aa(lp154
g26
ag66
aa(lp155
g26
ag70
aa(lp156
g74
ag26
aa(lp157
g26
ag78
aa(lp158
g26
ag82
aa(lp159
g26
ag86
aa(lp160
g26
ag90
aa(lp161
g30
ag34
aa(lp162
g30
ag38
aa(lp163
g30
ag42
aa(lp164
g30
ag46
aa(lp165
g30
ag50
aa(lp166
g30
ag54
aa(lp167
g58
ag30
aa(lp168
g30
ag62
aa(lp169
g66
ag30
aa(lp170
g30
ag70
aa(lp171
g74
ag30
aa(lp172
g30
ag78
aa(lp173
g30
ag82
aa(lp174
g86
ag30
aa(lp175
g30
ag90
aa(lp176
g38
ag34
aa(lp177
g42
ag34
aa(lp178
g46
ag34
aa(lp179
g50
ag34
aa(lp180
g34
ag54
aa(lp181
g58
ag34
aa(lp182
g62
ag34
aa(lp183
g66
ag34
aa(lp184
g34
ag70
aa(lp185
g74
ag34
aa(lp186
g34
ag78
aa(lp187
g82
ag34
aa(lp188
g86
ag34
aa(lp189
g90
ag34
aa(lp190
g38
ag42
aa(lp191
g38
ag46
aa(lp192
g38
ag50
aa(lp193
g54
ag38
aa(lp194
g58
ag38
aa(lp195
g62
ag38
aa(lp196
g66
ag38
aa(lp197
g38
ag70
aa(lp198
g74
ag38
aa(lp199
g78
ag38
aa(lp200
g82
ag38
aa(lp201
g86
ag38
aa(lp202
g90
ag38
aa(lp203
g42
ag46
aa(lp204
g42
ag50
aa(lp205
g54
ag42
aa(lp206
g58
ag42
aa(lp207
g62
ag42
aa(lp208
g66
ag42
aa(lp209
g42
ag70
aa(lp210
g74
ag42
aa(lp211
g78
ag42
aa(lp212
g82
ag42
aa(lp213
g86
ag42
aa(lp214
g90
ag42
aa(lp215
g46
ag50
aa(lp216
g54
ag46
aa(lp217
g58
ag46
aa(lp218
g62
ag46
aa(lp219
g66
ag46
aa(lp220
g46
ag70
aa(lp221
g74
ag46
aa(lp222
g78
ag46
aa(lp223
g82
ag46
aa(lp224
g86
ag46
aa(lp225
g90
ag46
aa(lp226
g54
ag50
aa(lp227
g58
ag50
aa(lp228
g62
ag50
aa(lp229
g66
ag50
aa(lp230
g50
ag70
aa(lp231
g74
ag50
aa(lp232
g78
ag50
aa(lp233
g82
ag50
aa(lp234
g86
ag50
aa(lp235
g90
ag50
aa(lp236
g58
ag54
aa(lp237
g62
ag54
aa(lp238
g66
ag54
aa(lp239
g54
ag70
aa(lp240
g74
ag54
aa(lp241
g54
ag78
aa(lp242
g82
ag54
aa(lp243
g86
ag54
aa(lp244
g90
ag54
aa(lp245
g62
ag58
aa(lp246
g66
ag58
aa(lp247
g58
ag70
aa(lp248
g74
ag58
aa(lp249
g58
ag78
aa(lp250
g58
ag82
aa(lp251
g86
ag58
aa(lp252
g58
ag90
aa(lp253
g66
ag62
aa(lp254
g62
ag70
aa(lp255
g74
ag62
aa(lp256
g62
ag78
aa(lp257
g62
ag82
aa(lp258
g86
ag62
aa(lp259
g62
ag90
aa(lp260
g66
ag70
aa(lp261
g74
ag66
aa(lp262
g66
ag78
aa(lp263
g66
ag82
aa(lp264
g66
ag86
aa(lp265
g66
ag90
aa(lp266
g74
ag70
aa(lp267
g78
ag70
aa(lp268
g82
ag70
aa(lp269
g86
ag70
aa(lp270
g90
ag70
aa(lp271
g74
ag78
aa(lp272
g74
ag82
aa(lp273
g74
ag86
aa(lp274
g74
ag90
aa(lp275
g82
ag78
aa(lp276
g86
ag78
aa(lp277
g90
ag78
aa(lp278
g86
ag82
aa(lp279
g82
ag90
aa(lp280
g86
ag90
aa.