(lp0
(lp1
cnumpy.core.multiarray
scalar
p2
(cnumpy
dtype
p3
(S'i8'
p4
I0
I1
tp5
Rp6
(I3
S'<'
p7
NNNI-1
I-1
I0
tp8
bS'\xcb\x00\x00\x00\x00\x00\x00\x00'
p9
tp10
Rp11
ag2
(g6
S'\xaa\x05\x00\x00\x00\x00\x00\x00'
p12
tp13
Rp14
aa(lp15
g11
ag2
(g6
S'\xf4\x05\x00\x00\x00\x00\x00\x00'
p16
tp17
Rp18
aa(lp19
g2
(g6
S'\xc3\x06\x00\x00\x00\x00\x00\x00'
p20
tp21
Rp22
ag11
aa(lp23
g11
ag2
(g6
S'g\x0e\x00\x00\x00\x00\x00\x00'
p24
tp25
Rp26
aa(lp27
g11
ag2
(g6
S'\x18\x0f\x00\x00\x00\x00\x00\x00'
p28
tp29
Rp30
aa(lp31
g11
ag2
(g6
S'b\x0f\x00\x00\x00\x00\x00\x00'
p32
tp33
Rp34
aa(lp35
g11
ag2
(g6
S'\x8f\x11\x00\x00\x00\x00\x00\x00'
p36
tp37
Rp38
aa(lp39
g11
ag2
(g6
S'F\x13\x00\x00\x00\x00\x00\x00'
p40
tp41
Rp42
aa(lp43
g11
ag2
(g6
S'2\x17\x00\x00\x00\x00\x00\x00'
p44
tp45
Rp46
aa(lp47
g2
(g6
S'\xe9\x18\x00\x00\x00\x00\x00\x00'
p48
tp49
Rp50
ag11
aa(lp51
g11
ag2
(g6
S'\x93\x19\x00\x00\x00\x00\x00\x00'
p52
tp53
Rp54
aa(lp55
g11
ag2
(g6
S'\x96\x1b\x00\x00\x00\x00\x00\x00'
p56
tp57
Rp58
aa(lp59
g2
(g6
S'\xca\x1b\x00\x00\x00\x00\x00\x00'
p60
tp61
Rp62
ag11
aa(lp63
g11
ag2
(g6
S'}\x1f\x00\x00\x00\x00\x00\x00'
p64
tp65
Rp66
aa(lp67
g11
ag2
(g6
S'\x96 \x00\x00\x00\x00\x00\x00'
p68
tp69
Rp70
aa(lp71
g2
(g6
S'~!\x00\x00\x00\x00\x00\x00'
p72
tp73
Rp74
ag11
aa(lp75
g11
ag2
(g6
S'\x1d"\x00\x00\x00\x00\x00\x00'
p76
tp77
Rp78
aa(lp79
g11
ag2
(g6
S'\xfd#\x00\x00\x00\x00\x00\x00'
p80
tp81
Rp82
aa(lp83
g2
(g6
S'q%\x00\x00\x00\x00\x00\x00'
p84
tp85
Rp86
ag11
aa(lp87
g11
ag2
(g6
S'\x8c%\x00\x00\x00\x00\x00\x00'
p88
tp89
Rp90
aa(lp91
g2
(g6
S'/&\x00\x00\x00\x00\x00\x00'
p92
tp93
Rp94
ag11
aa(lp95
g2
(g6
S'l&\x00\x00\x00\x00\x00\x00'
p96
tp97
Rp98
ag11
aa(lp99
g18
ag14
aa(lp100
g22
ag14
aa(lp101
g26
ag14
aa(lp102
g30
ag14
aa(lp103
g34
ag14
aa(lp104
g38
ag14
aa(lp105
g42
ag14
aa(lp106
g46
ag14
aa(lp107
g50
ag14
aa(lp108
g54
ag14
aa(lp109
g58
ag14
aa(lp110
g62
ag14
aa(lp111
g66
ag14
aa(lp112
g70
ag14
aa(lp113
g74
ag14
aa(lp114
g78
ag14
aa(lp115
g82
ag14
aa(lp116
g86
ag14
aa(lp117
g90
ag14
aa(lp118
g94
ag14
aa(lp119
g98
ag14
aa(lp120
g22
ag18
aa(lp121
g26
ag18
aa(lp122
g18
ag30
aa(lp123
g18
ag34
aa(lp124
g18
ag38
aa(lp125
g18
ag42
aa(lp126
g18
ag46
aa(lp127
g18
ag50
aa(lp128
g54
ag18
aa(lp129
g18
ag58
aa(lp130
g62
ag18
aa(lp131
g18
ag66
aa(lp132
g18
ag70
aa(lp133
g18
ag74
aa(lp134
g18
ag78
aa(lp135
g18
ag82
aa(lp136
g18
ag86
aa(lp137
g18
ag90
aa(lp138
g94
ag18
aa(lp139
g98
ag18
aa(lp140
g22
ag26
aa(lp141
g22
ag30
aa(lp142
g22
ag34
aa(lp143
g22
ag38
aa(lp144
g22
ag42
aa(lp145
g22
ag46
aa(lp146
g22
ag50
aa(lp147
g22
ag54
aa(lp148
g22
ag58
aa(lp149
g22
ag62
aa(lp150
g22
ag66
aa(lp151
g22
ag70
aa(lp152
g22
ag74
aa(lp153
g22
ag78
aa(lp154
g22
ag82
aa(lp155
g22
ag86
aa(lp156
g22
ag90
aa(lp157
g22
ag94
aa(lp158
g22
ag98
aa(lp159
g26
ag30
aa(lp160
g26
ag34
aa(lp161
g26
ag38
aa(lp162
g26
ag42
aa(lp163
g26
ag46
aa(lp164
g26
ag50
aa(lp165
g26
ag54
aa(lp166
g26
ag58
aa(lp167
g62
ag26
aa(lp168
g26
ag66
aa(lp169
g26
ag70
aa(lp170
g26
ag74
aa(lp171
g26
ag78
aa(lp172
g26
ag82
aa(lp173
g26
ag86
aa(lp174
g26
ag90
aa(lp175
g94
ag26
aa(lp176
g98
ag26
aa(lp177
g30
ag34
aa(lp178
g30
ag38
aa(lp179
g30
ag42
aa(lp180
g30
ag46
aa(lp181
g50
ag30
aa(lp182
g54
ag30
aa(lp183
g30
ag58
aa(lp184
g62
ag30
aa(lp185
g30
ag66
aa(lp186
g30
ag70
aa(lp187
g74
ag30
aa(lp188
g30
ag78
aa(lp189
g30
ag82
aa(lp190
g86
ag30
aa(lp191
g30
ag90
aa(lp192
g94
ag30
aa(lp193
g98
ag30
aa(lp194
g38
ag34
aa(lp195
g42
ag34
aa(lp196
g46
ag34
aa(lp197
g50
ag34
aa(lp198
g54
ag34
aa(lp199
g58
ag34
aa(lp200
g62
ag34
aa(lp201
g34
ag66
aa(lp202
g34
ag70
aa(lp203
g74
ag34
aa(lp204
g34
ag78
aa(lp205
g82
ag34
aa(lp206
g86
ag34
aa(lp207
g90
ag34
aa(lp208
g94
ag34
aa(lp209
g98
ag34
aa(lp210
g42
ag38
aa(lp211
g46
ag38
aa(lp212
g50
ag38
aa(lp213
g54
ag38
aa(lp214
g58
ag38
aa(lp215
g62
ag38
aa(lp216
g38
ag66
aa(lp217
g38
ag70
aa(lp218
g74
ag38
aa(lp219
g38
ag78
aa(lp220
g82
ag38
aa(lp221
g86
ag38
aa(lp222
g90
ag38
aa(lp223
g94
ag38
aa(lp224
g98
ag38
aa(lp225
g46
ag42
aa(lp226
g50
ag42
aa(lp227
g54
ag42
aa(lp228
g58
ag42
aa(lp229
g62
ag42
aa(lp230
g42
ag66
aa(lp231
g42
ag70
aa(lp232
g74
ag42
aa(lp233
g42
ag78
aa(lp234
g82
ag42
aa(lp235
g86
ag42
aa(lp236
g90
ag42
aa(lp237
g94
ag42
aa(lp238
g98
ag42
aa(lp239
g50
ag46
aa(lp240
g54
ag46
aa(lp241
g58
ag46
aa(lp242
g62
ag46
aa(lp243
g46
ag66
aa(lp244
g46
ag70
aa(lp245
g74
ag46
aa(lp246
g46
ag78
aa(lp247
g82
ag46
aa(lp248
g86
ag46
aa(lp249
g90
ag46
aa(lp250
g94
ag46
aa(lp251
g98
ag46
aa(lp252
g50
ag54
aa(lp253
g58
ag50
aa(lp254
g62
ag50
aa(lp255
g66
ag50
aa(lp256
g50
ag70
aa(lp257
g50
ag74
aa(lp258
g50
ag78
aa(lp259
g50
ag82
aa(lp260
g50
ag86
aa(lp261
g50
ag90
aa(lp262
g94
ag50
aa(lp263
g50
ag98
aa(lp264
g54
ag58
aa(lp265
g62
ag54
aa(lp266
g54
ag66
aa(lp267
g54
ag70
aa(lp268
g74
ag54
aa(lp269
g54
ag78
aa(lp270
g54
ag82
aa(lp271
g86
ag54
aa(lp272
g54
ag90
aa(lp273
g94
ag54
aa(lp274
g98
ag54
aa(lp275
g62
ag58
aa(lp276
g58
ag66
aa(lp277
g58
ag70
aa(lp278
g58
ag74
aa(lp279
g58
ag78
aa(lp280
g58
ag82
aa(lp281
g58
ag86
aa(lp282
g58
ag90
aa(lp283
g94
ag58
aa(lp284
g98
ag58
aa(lp285
g62
ag66
aa(lp286
g62
ag70
aa(lp287
g62
ag74
aa(lp288
g62
ag78
aa(lp289
g62
ag82
aa(lp290
g62
ag86
aa(lp291
g62
ag90
aa(lp292
g62
ag94
aa(lp293
g62
ag98
aa(lp294
g70
ag66
aa(lp295
g66
ag74
aa(lp296
g66
ag78
aa(lp297
g82
ag66
aa(lp298
g66
ag86
aa(lp299
g90
ag66
aa(lp300
g94
ag66
aa(lp301
g98
ag66
aa(lp302
g74
ag70
aa(lp303
g70
ag78
aa(lp304
g82
ag70
aa(lp305
g86
ag70
aa(lp306
g90
ag70
aa(lp307
g94
ag70
aa(lp308
g98
ag70
aa(lp309
g74
ag78
aa(lp310
g74
ag82
aa(lp311
g74
ag86
aa(lp312
g90
ag74
aa(lp313
g94
ag74
aa(lp314
g74
ag98
aa(lp315
g82
ag78
aa(lp316
g86
ag78
aa(lp317
g90
ag78
aa(lp318
g94
ag78
aa(lp319
g98
ag78
aa(lp320
g86
ag82
aa(lp321
g82
ag90
aa(lp322
g94
ag82
aa(lp323
g98
ag82
aa(lp324
g90
ag86
aa(lp325
g94
ag86
aa(lp326
g86
ag98
aa(lp327
g94
ag90
aa(lp328
g98
ag90
aa(lp329
g98
ag94
aa.