(lp0
(lp1
cnumpy.core.multiarray
scalar
p2
(cnumpy
dtype
p3
(S'i8'
p4
I0
I1
tp5
Rp6
(I3
S'<'
p7
NNNI-1
I-1
I0
tp8
bS'\xcb\x00\x00\x00\x00\x00\x00\x00'
p9
tp10
Rp11
ag2
(g6
S'\xaa\x05\x00\x00\x00\x00\x00\x00'
p12
tp13
Rp14
aa(lp15
g11
ag2
(g6
S'\xf4\x05\x00\x00\x00\x00\x00\x00'
p16
tp17
Rp18
aa(lp19
g2
(g6
S'\xc3\x06\x00\x00\x00\x00\x00\x00'
p20
tp21
Rp22
ag11
aa(lp23
g2
(g6
S'2\t\x00\x00\x00\x00\x00\x00'
p24
tp25
Rp26
ag11
aa(lp27
g11
ag2
(g6
S'.\n\x00\x00\x00\x00\x00\x00'
p28
tp29
Rp30
aa(lp31
g11
ag2
(g6
S'g\x0e\x00\x00\x00\x00\x00\x00'
p32
tp33
Rp34
aa(lp35
g11
ag2
(g6
S'\x18\x0f\x00\x00\x00\x00\x00\x00'
p36
tp37
Rp38
aa(lp39
g11
ag2
(g6
S'b\x0f\x00\x00\x00\x00\x00\x00'
p40
tp41
Rp42
aa(lp43
g11
ag2
(g6
S'\x8f\x11\x00\x00\x00\x00\x00\x00'
p44
tp45
Rp46
aa(lp47
g11
ag2
(g6
S'F\x13\x00\x00\x00\x00\x00\x00'
p48
tp49
Rp50
aa(lp51
g11
ag2
(g6
S'2\x17\x00\x00\x00\x00\x00\x00'
p52
tp53
Rp54
aa(lp55
g2
(g6
S'\xe9\x18\x00\x00\x00\x00\x00\x00'
p56
tp57
Rp58
ag11
aa(lp59
g11
ag2
(g6
S'\x93\x19\x00\x00\x00\x00\x00\x00'
p60
tp61
Rp62
aa(lp63
g11
ag2
(g6
S'\x96\x1b\x00\x00\x00\x00\x00\x00'
p64
tp65
Rp66
aa(lp67
g2
(g6
S'\xca\x1b\x00\x00\x00\x00\x00\x00'
p68
tp69
Rp70
ag11
aa(lp71
g11
ag2
(g6
S'}\x1f\x00\x00\x00\x00\x00\x00'
p72
tp73
Rp74
aa(lp75
g11
ag2
(g6
S'\x96 \x00\x00\x00\x00\x00\x00'
p76
tp77
Rp78
aa(lp79
g2
(g6
S'~!\x00\x00\x00\x00\x00\x00'
p80
tp81
Rp82
ag11
aa(lp83
g11
ag2
(g6
S'\x1d"\x00\x00\x00\x00\x00\x00'
p84
tp85
Rp86
aa(lp87
g11
ag2
(g6
S'\xfd#\x00\x00\x00\x00\x00\x00'
p88
tp89
Rp90
aa(lp91
g2
(g6
S'q%\x00\x00\x00\x00\x00\x00'
p92
tp93
Rp94
ag11
aa(lp95
g11
ag2
(g6
S'\x8c%\x00\x00\x00\x00\x00\x00'
p96
tp97
Rp98
aa(lp99
g2
(g6
S'/&\x00\x00\x00\x00\x00\x00'
p100
tp101
Rp102
ag11
aa(lp103
g2
(g6
S'l&\x00\x00\x00\x00\x00\x00'
p104
tp105
Rp106
ag11
aa(lp107
g18
ag14
aa(lp108
g22
ag14
aa(lp109
g26
ag14
aa(lp110
g30
ag14
aa(lp111
g34
ag14
aa(lp112
g38
ag14
aa(lp113
g42
ag14
aa(lp114
g46
ag14
aa(lp115
g50
ag14
aa(lp116
g54
ag14
aa(lp117
g58
ag14
aa(lp118
g62
ag14
aa(lp119
g66
ag14
aa(lp120
g70
ag14
aa(lp121
g74
ag14
aa(lp122
g78
ag14
aa(lp123
g82
ag14
aa(lp124
g86
ag14
aa(lp125
g90
ag14
aa(lp126
g94
ag14
aa(lp127
g98
ag14
aa(lp128
g102
ag14
aa(lp129
g106
ag14
aa(lp130
g22
ag18
aa(lp131
g26
ag18
aa(lp132
g18
ag30
aa(lp133
g34
ag18
aa(lp134
g18
ag38
aa(lp135
g18
ag42
aa(lp136
g18
ag46
aa(lp137
g18
ag50
aa(lp138
g18
ag54
aa(lp139
g18
ag58
aa(lp140
g62
ag18
aa(lp141
g18
ag66
aa(lp142
g70
ag18
aa(lp143
g18
ag74
aa(lp144
g18
ag78
aa(lp145
g18
ag82
aa(lp146
g18
ag86
aa(lp147
g18
ag90
aa(lp148
g18
ag94
aa(lp149
g18
ag98
aa(lp150
g102
ag18
aa(lp151
g106
ag18
aa(lp152
g22
ag26
aa(lp153
g22
ag30
aa(lp154
g22
ag34
aa(lp155
g22
ag38
aa(lp156
g22
ag42
aa(lp157
g22
ag46
aa(lp158
g22
ag50
aa(lp159
g22
ag54
aa(lp160
g22
ag58
aa(lp161
g22
ag62
aa(lp162
g22
ag66
aa(lp163
g22
ag70
aa(lp164
g22
ag74
aa(lp165
g22
ag78
aa(lp166
g22
ag82
aa(lp167
g22
ag86
aa(lp168
g22
ag90
aa(lp169
g22
ag94
aa(lp170
g22
ag98
aa(lp171
g22
ag102
aa(lp172
g22
ag106
aa(lp173
g26
ag30
aa(lp174
g26
ag34
aa(lp175
g26
ag38
aa(lp176
g26
ag42
aa(lp177
g26
ag46
aa(lp178
g26
ag50
aa(lp179
g26
ag54
aa(lp180
g26
ag58
aa(lp181
g26
ag62
aa(lp182
g26
ag66
aa(lp183
g26
ag70
aa(lp184
g26
ag74
aa(lp185
g26
ag78
aa(lp186
g26
ag82
aa(lp187
g26
ag86
aa(lp188
g26
ag90
aa(lp189
g26
ag94
aa(lp190
g26
ag98
aa(lp191
g102
ag26
aa(lp192
g26
ag106
aa(lp193
g34
ag30
aa(lp194
g38
ag30
aa(lp195
g42
ag30
aa(lp196
g46
ag30
aa(lp197
g50
ag30
aa(lp198
g54
ag30
aa(lp199
g30
ag58
aa(lp200
g62
ag30
aa(lp201
g66
ag30
aa(lp202
g70
ag30
aa(lp203
g74
ag30
aa(lp204
g78
ag30
aa(lp205
g30
ag82
aa(lp206
g86
ag30
aa(lp207
g90
ag30
aa(lp208
g30
ag94
aa(lp209
g98
ag30
aa(lp210
g102
ag30
aa(lp211
g106
ag30
aa(lp212
g34
ag38
aa(lp213
g34
ag42
aa(lp214
g34
ag46
aa(lp215
g34
ag50
aa(lp216
g34
ag54
aa(lp217
g34
ag58
aa(lp218
g34
ag62
aa(lp219
g34
ag66
aa(lp220
g70
ag34
aa(lp221
g34
ag74
aa(lp222
g34
ag78
aa(lp223
g34
ag82
aa(lp224
g34
ag86
aa(lp225
g34
ag90
aa(lp226
g34
ag94
aa(lp227
g34
ag98
aa(lp228
g102
ag34
aa(lp229
g106
ag34
aa(lp230
g38
ag42
aa(lp231
g38
ag46
aa(lp232
g38
ag50
aa(lp233
g38
ag54
aa(lp234
g58
ag38
aa(lp235
g62
ag38
aa(lp236
g38
ag66
aa(lp237
g70
ag38
aa(lp238
g38
ag74
aa(lp239
g38
ag78
aa(lp240
g82
ag38
aa(lp241
g38
ag86
aa(lp242
g38
ag90
aa(lp243
g94
ag38
aa(lp244
g38
ag98
aa(lp245
g102
ag38
aa(lp246
g106
ag38
aa(lp247
g46
ag42
aa(lp248
g50
ag42
aa(lp249
g54
ag42
aa(lp250
g58
ag42
aa(lp251
g62
ag42
aa(lp252
g66
ag42
aa(lp253
g70
ag42
aa(lp254
g42
ag74
aa(lp255
g42
ag78
aa(lp256
g82
ag42
aa(lp257
g42
ag86
aa(lp258
g90
ag42
aa(lp259
g94
ag42
aa(lp260
g98
ag42
aa(lp261
g102
ag42
aa(lp262
g106
ag42
aa(lp263
g50
ag46
aa(lp264
g54
ag46
aa(lp265
g58
ag46
aa(lp266
g62
ag46
aa(lp267
g66
ag46
aa(lp268
g70
ag46
aa(lp269
g46
ag74
aa(lp270
g46
ag78
aa(lp271
g82
ag46
aa(lp272
g46
ag86
aa(lp273
g90
ag46
aa(lp274
g94
ag46
aa(lp275
g98
ag46
aa(lp276
g102
ag46
aa(lp277
g106
ag46
aa(lp278
g54
ag50
aa(lp279
g58
ag50
aa(lp280
g62
ag50
aa(lp281
g66
ag50
aa(lp282
g70
ag50
aa(lp283
g50
ag74
aa(lp284
g50
ag78
aa(lp285
g82
ag50
aa(lp286
g50
ag86
aa(lp287
g90
ag50
aa(lp288
g94
ag50
aa(lp289
g98
ag50
aa(lp290
g102
ag50
aa(lp291
g106
ag50
aa(lp292
g58
ag54
aa(lp293
g62
ag54
aa(lp294
g66
ag54
aa(lp295
g70
ag54
aa(lp296
g54
ag74
aa(lp297
g54
ag78
aa(lp298
g82
ag54
aa(lp299
g54
ag86
aa(lp300
g90
ag54
aa(lp301
g94
ag54
aa(lp302
g98
ag54
aa(lp303
g102
ag54
aa(lp304
g106
ag54
aa(lp305
g58
ag62
aa(lp306
g66
ag58
aa(lp307
g70
ag58
aa(lp308
g74
ag58
aa(lp309
g58
ag78
aa(lp310
g58
ag82
aa(lp311
g58
ag86
aa(lp312
g58
ag90
aa(lp313
g58
ag94
aa(lp314
g58
ag98
aa(lp315
g102
ag58
aa(lp316
g58
ag106
aa(lp317
g62
ag66
aa(lp318
g70
ag62
aa(lp319
g62
ag74
aa(lp320
g62
ag78
aa(lp321
g82
ag62
aa(lp322
g62
ag86
aa(lp323
g62
ag90
aa(lp324
g94
ag62
aa(lp325
g62
ag98
aa(lp326
g102
ag62
aa(lp327
g106
ag62
aa(lp328
g70
ag66
aa(lp329
g66
ag74
aa(lp330
g66
ag78
aa(lp331
g66
ag82
aa(lp332
g66
ag86
aa(lp333
g66
ag90
aa(lp334
g66
ag94
aa(lp335
g66
ag98
aa(lp336
g102
ag66
aa(lp337
g106
ag66
aa(lp338
g70
ag74
aa(lp339
g70
ag78
aa(lp340
g70
ag82
aa(lp341
g70
ag86
aa(lp342
g70
ag90
aa(lp343
g70
ag94
aa(lp344
g70
ag98
aa(lp345
g70
ag102
aa(lp346
g70
ag106
aa(lp347
g78
ag74
aa(lp348
g74
ag82
aa(lp349
g74
ag86
aa(lp350
g90
ag74
aa(lp351
g74
ag94
aa(lp352
g98
ag74
aa(lp353
g102
ag74
aa(lp354
g106
ag74
aa(lp355
g82
ag78
aa(lp356
g78
ag86
aa(lp357
g90
ag78
aa(lp358
g94
ag78
aa(lp359
g98
ag78
aa(lp360
g102
ag78
aa(lp361
g106
ag78
aa(lp362
g82
ag86
aa(lp363
g82
ag90
aa(lp364
g82
ag94
aa(lp365
g98
ag82
aa(lp366
g102
ag82
aa(lp367
g82
ag106
aa(lp368
g90
ag86
aa(lp369
g94
ag86
aa(lp370
g98
ag86
aa(lp371
g102
ag86
aa(lp372
g106
ag86
aa(lp373
g94
ag90
aa(lp374
g90
ag98
aa(lp375
g102
ag90
aa(lp376
g106
ag90
aa(lp377
g98
ag94
aa(lp378
g102
ag94
aa(lp379
g94
ag106
aa(lp380
g102
ag98
aa(lp381
g106
ag98
aa(lp382
g106
ag102
aa.