(lp0
(lp1
cnumpy.core.multiarray
scalar
p2
(cnumpy
dtype
p3
(S'i8'
p4
I0
I1
tp5
Rp6
(I3
S'<'
p7
NNNI-1
I-1
I0
tp8
bS'\xaa\x05\x00\x00\x00\x00\x00\x00'
p9
tp10
Rp11
ag2
(g6
S'\xcb\x00\x00\x00\x00\x00\x00\x00'
p12
tp13
Rp14
aa(lp15
g2
(g6
S'\xf4\x05\x00\x00\x00\x00\x00\x00'
p16
tp17
Rp18
ag14
aa(lp19
g2
(g6
S'\xc3\x06\x00\x00\x00\x00\x00\x00'
p20
tp21
Rp22
ag14
aa(lp23
g2
(g6
S'g\x0e\x00\x00\x00\x00\x00\x00'
p24
tp25
Rp26
ag14
aa(lp27
g14
ag2
(g6
S'\x18\x0f\x00\x00\x00\x00\x00\x00'
p28
tp29
Rp30
aa(lp31
g14
ag2
(g6
S'b\x0f\x00\x00\x00\x00\x00\x00'
p32
tp33
Rp34
aa(lp35
g14
ag2
(g6
S'\x8f\x11\x00\x00\x00\x00\x00\x00'
p36
tp37
Rp38
aa(lp39
g14
ag2
(g6
S'F\x13\x00\x00\x00\x00\x00\x00'
p40
tp41
Rp42
aa(lp43
g14
ag2
(g6
S'2\x17\x00\x00\x00\x00\x00\x00'
p44
tp45
Rp46
aa(lp47
g2
(g6
S'\xe9\x18\x00\x00\x00\x00\x00\x00'
p48
tp49
Rp50
ag14
aa(lp51
g14
ag2
(g6
S'\x93\x19\x00\x00\x00\x00\x00\x00'
p52
tp53
Rp54
aa(lp55
g14
ag2
(g6
S'\x96\x1b\x00\x00\x00\x00\x00\x00'
p56
tp57
Rp58
aa(lp59
g2
(g6
S'\xca\x1b\x00\x00\x00\x00\x00\x00'
p60
tp61
Rp62
ag14
aa(lp63
g14
ag2
(g6
S'}\x1f\x00\x00\x00\x00\x00\x00'
p64
tp65
Rp66
aa(lp67
g14
ag2
(g6
S'\x96 \x00\x00\x00\x00\x00\x00'
p68
tp69
Rp70
aa(lp71
g2
(g6
S'~!\x00\x00\x00\x00\x00\x00'
p72
tp73
Rp74
ag14
aa(lp75
g2
(g6
S'\x1d"\x00\x00\x00\x00\x00\x00'
p76
tp77
Rp78
ag14
aa(lp79
g14
ag2
(g6
S'\xfd#\x00\x00\x00\x00\x00\x00'
p80
tp81
Rp82
aa(lp83
g2
(g6
S'q%\x00\x00\x00\x00\x00\x00'
p84
tp85
Rp86
ag14
aa(lp87
g2
(g6
S'\x8c%\x00\x00\x00\x00\x00\x00'
p88
tp89
Rp90
ag14
aa(lp91
g14
ag2
(g6
S'/&\x00\x00\x00\x00\x00\x00'
p92
tp93
Rp94
aa(lp95
g14
ag2
(g6
S'l&\x00\x00\x00\x00\x00\x00'
p96
tp97
Rp98
aa(lp99
g11
ag18
aa(lp100
g11
ag22
aa(lp101
g11
ag26
aa(lp102
g11
ag30
aa(lp103
g11
ag34
aa(lp104
g11
ag38
aa(lp105
g11
ag42
aa(lp106
g11
ag46
aa(lp107
g11
ag50
aa(lp108
g11
ag54
aa(lp109
g11
ag58
aa(lp110
g11
ag62
aa(lp111
g11
ag66
aa(lp112
g11
ag70
aa(lp113
g11
ag74
aa(lp114
g11
ag78
aa(lp115
g11
ag82
aa(lp116
g11
ag86
aa(lp117
g11
ag90
aa(lp118
g11
ag94
aa(lp119
g11
ag98
aa(lp120
g22
ag18
aa(lp121
g26
ag18
aa(lp122
g18
ag30
aa(lp123
g18
ag34
aa(lp124
g18
ag38
aa(lp125
g18
ag42
aa(lp126
g18
ag46
aa(lp127
g18
ag50
aa(lp128
g18
ag54
aa(lp129
g18
ag58
aa(lp130
g18
ag62
aa(lp131
g18
ag66
aa(lp132
g18
ag70
aa(lp133
g18
ag74
aa(lp134
g78
ag18
aa(lp135
g18
ag82
aa(lp136
g18
ag86
aa(lp137
g18
ag90
aa(lp138
g18
ag94
aa(lp139
g18
ag98
aa(lp140
g22
ag26
aa(lp141
g22
ag30
aa(lp142
g22
ag34
aa(lp143
g22
ag38
aa(lp144
g22
ag42
aa(lp145
g22
ag46
aa(lp146
g22
ag50
aa(lp147
g22
ag54
aa(lp148
g22
ag58
aa(lp149
g22
ag62
aa(lp150
g22
ag66
aa(lp151
g22
ag70
aa(lp152
g22
ag74
aa(lp153
g78
ag22
aa(lp154
g22
ag82
aa(lp155
g22
ag86
aa(lp156
g22
ag90
aa(lp157
g22
ag94
aa(lp158
g22
ag98
aa(lp159
g26
ag30
aa(lp160
g26
ag34
aa(lp161
g26
ag38
aa(lp162
g26
ag42
aa(lp163
g26
ag46
aa(lp164
g26
ag50
aa(lp165
g26
ag54
aa(lp166
g58
ag26
aa(lp167
g26
ag62
aa(lp168
g66
ag26
aa(lp169
g26
ag70
aa(lp170
g26
ag74
aa(lp171
g78
ag26
aa(lp172
g26
ag82
aa(lp173
g26
ag86
aa(lp174
g26
ag90
aa(lp175
g26
ag94
aa(lp176
g26
ag98
aa(lp177
g34
ag30
aa(lp178
g38
ag30
aa(lp179
g42
ag30
aa(lp180
g46
ag30
aa(lp181
g50
ag30
aa(lp182
g30
ag54
aa(lp183
g30
ag58
aa(lp184
g62
ag30
aa(lp185
g66
ag30
aa(lp186
g30
ag70
aa(lp187
g74
ag30
aa(lp188
g78
ag30
aa(lp189
g82
ag30
aa(lp190
g86
ag30
aa(lp191
g90
ag30
aa(lp192
g94
ag30
aa(lp193
g30
ag98
aa(lp194
g34
ag38
aa(lp195
g42
ag34
aa(lp196
g34
ag46
aa(lp197
g50
ag34
aa(lp198
g54
ag34
aa(lp199
g34
ag58
aa(lp200
g62
ag34
aa(lp201
g66
ag34
aa(lp202
g34
ag70
aa(lp203
g74
ag34
aa(lp204
g78
ag34
aa(lp205
g82
ag34
aa(lp206
g86
ag34
aa(lp207
g90
ag34
aa(lp208
g34
ag94
aa(lp209
g98
ag34
aa(lp210
g42
ag38
aa(lp211
g38
ag46
aa(lp212
g50
ag38
aa(lp213
g54
ag38
aa(lp214
g38
ag58
aa(lp215
g62
ag38
aa(lp216
g66
ag38
aa(lp217
g38
ag70
aa(lp218
g74
ag38
aa(lp219
g78
ag38
aa(lp220
g82
ag38
aa(lp221
g86
ag38
aa(lp222
g90
ag38
aa(lp223
g38
ag94
aa(lp224
g98
ag38
aa(lp225
g42
ag46
aa(lp226
g50
ag42
aa(lp227
g54
ag42
aa(lp228
g42
ag58
aa(lp229
g62
ag42
aa(lp230
g66
ag42
aa(lp231
g42
ag70
aa(lp232
g74
ag42
aa(lp233
g78
ag42
aa(lp234
g82
ag42
aa(lp235
g86
ag42
aa(lp236
g90
ag42
aa(lp237
g42
ag94
aa(lp238
g98
ag42
aa(lp239
g50
ag46
aa(lp240
g54
ag46
aa(lp241
g46
ag58
aa(lp242
g62
ag46
aa(lp243
g66
ag46
aa(lp244
g46
ag70
aa(lp245
g46
ag74
aa(lp246
g78
ag46
aa(lp247
g82
ag46
aa(lp248
g86
ag46
aa(lp249
g90
ag46
aa(lp250
g94
ag46
aa(lp251
g98
ag46
aa(lp252
g50
ag54
aa(lp253
g58
ag50
aa(lp254
g62
ag50
aa(lp255
g66
ag50
aa(lp256
g50
ag70
aa(lp257
g50
ag74
aa(lp258
g78
ag50
aa(lp259
g50
ag82
aa(lp260
g50
ag86
aa(lp261
g50
ag90
aa(lp262
g94
ag50
aa(lp263
g50
ag98
aa(lp264
g58
ag54
aa(lp265
g62
ag54
aa(lp266
g66
ag54
aa(lp267
g54
ag70
aa(lp268
g74
ag54
aa(lp269
g78
ag54
aa(lp270
g54
ag82
aa(lp271
g86
ag54
aa(lp272
g90
ag54
aa(lp273
g94
ag54
aa(lp274
g54
ag98
aa(lp275
g62
ag58
aa(lp276
g66
ag58
aa(lp277
g58
ag70
aa(lp278
g58
ag74
aa(lp279
g78
ag58
aa(lp280
g58
ag82
aa(lp281
g58
ag86
aa(lp282
g58
ag90
aa(lp283
g94
ag58
aa(lp284
g58
ag98
aa(lp285
g62
ag66
aa(lp286
g62
ag70
aa(lp287
g62
ag74
aa(lp288
g78
ag62
aa(lp289
g62
ag82
aa(lp290
g62
ag86
aa(lp291
g62
ag90
aa(lp292
g62
ag94
aa(lp293
g62
ag98
aa(lp294
g66
ag70
aa(lp295
g66
ag74
aa(lp296
g78
ag66
aa(lp297
g66
ag82
aa(lp298
g66
ag86
aa(lp299
g66
ag90
aa(lp300
g94
ag66
aa(lp301
g66
ag98
aa(lp302
g74
ag70
aa(lp303
g78
ag70
aa(lp304
g82
ag70
aa(lp305
g86
ag70
aa(lp306
g90
ag70
aa(lp307
g94
ag70
aa(lp308
g98
ag70
aa(lp309
g78
ag74
aa(lp310
g74
ag82
aa(lp311
g86
ag74
aa(lp312
g90
ag74
aa(lp313
g94
ag74
aa(lp314
g74
ag98
aa(lp315
g78
ag82
aa(lp316
g78
ag86
aa(lp317
g78
ag90
aa(lp318
g78
ag94
aa(lp319
g78
ag98
aa(lp320
g86
ag82
aa(lp321
g90
ag82
aa(lp322
g94
ag82
aa(lp323
g98
ag82
aa(lp324
g90
ag86
aa(lp325
g94
ag86
aa(lp326
g86
ag98
aa(lp327
g94
ag90
aa(lp328
g90
ag98
aa(lp329
g94
ag98
aa.