(lp0
(lp1
cnumpy.core.multiarray
scalar
p2
(cnumpy
dtype
p3
(S'i8'
p4
I0
I1
tp5
Rp6
(I3
S'<'
p7
NNNI-1
I-1
I0
tp8
bS'\xaa\x05\x00\x00\x00\x00\x00\x00'
p9
tp10
Rp11
ag2
(g6
S'\xcb\x00\x00\x00\x00\x00\x00\x00'
p12
tp13
Rp14
aa(lp15
g2
(g6
S'\xf4\x05\x00\x00\x00\x00\x00\x00'
p16
tp17
Rp18
ag14
aa(lp19
g2
(g6
S'\xc3\x06\x00\x00\x00\x00\x00\x00'
p20
tp21
Rp22
ag14
aa(lp23
g2
(g6
S'.\n\x00\x00\x00\x00\x00\x00'
p24
tp25
Rp26
ag14
aa(lp27
g2
(g6
S'g\x0e\x00\x00\x00\x00\x00\x00'
p28
tp29
Rp30
ag14
aa(lp31
g14
ag2
(g6
S'\x18\x0f\x00\x00\x00\x00\x00\x00'
p32
tp33
Rp34
aa(lp35
g14
ag2
(g6
S'b\x0f\x00\x00\x00\x00\x00\x00'
p36
tp37
Rp38
aa(lp39
g14
ag2
(g6
S'\x8f\x11\x00\x00\x00\x00\x00\x00'
p40
tp41
Rp42
aa(lp43
g14
ag2
(g6
S'F\x13\x00\x00\x00\x00\x00\x00'
p44
tp45
Rp46
aa(lp47
g14
ag2
(g6
S'2\x17\x00\x00\x00\x00\x00\x00'
p48
tp49
Rp50
aa(lp51
g14
ag2
(g6
S'\x93\x19\x00\x00\x00\x00\x00\x00'
p52
tp53
Rp54
aa(lp55
g14
ag2
(g6
S'\x96\x1b\x00\x00\x00\x00\x00\x00'
p56
tp57
Rp58
aa(lp59
g2
(g6
S'\xca\x1b\x00\x00\x00\x00\x00\x00'
p60
tp61
Rp62
ag14
aa(lp63
g2
(g6
S'}\x1f\x00\x00\x00\x00\x00\x00'
p64
tp65
Rp66
ag14
aa(lp67
g14
ag2
(g6
S'\x96 \x00\x00\x00\x00\x00\x00'
p68
tp69
Rp70
aa(lp71
g2
(g6
S'\x1d"\x00\x00\x00\x00\x00\x00'
p72
tp73
Rp74
ag14
aa(lp75
g2
(g6
S'/&\x00\x00\x00\x00\x00\x00'
p76
tp77
Rp78
ag14
aa(lp79
g11
ag18
aa(lp80
g11
ag22
aa(lp81
g26
ag11
aa(lp82
g11
ag30
aa(lp83
g11
ag34
aa(lp84
g11
ag38
aa(lp85
g11
ag42
aa(lp86
g11
ag46
aa(lp87
g11
ag50
aa(lp88
g11
ag54
aa(lp89
g11
ag58
aa(lp90
g11
ag62
aa(lp91
g11
ag66
aa(lp92
g11
ag70
aa(lp93
g11
ag74
aa(lp94
g11
ag78
aa(lp95
g22
ag18
aa(lp96
g26
ag18
aa(lp97
g18
ag30
aa(lp98
g18
ag34
aa(lp99
g18
ag38
aa(lp100
g18
ag42
aa(lp101
g18
ag46
aa(lp102
g18
ag50
aa(lp103
g18
ag54
aa(lp104
g18
ag58
aa(lp105
g18
ag62
aa(lp106
g66
ag18
aa(lp107
g18
ag70
aa(lp108
g74
ag18
aa(lp109
g78
ag18
aa(lp110
g26
ag22
aa(lp111
g22
ag30
aa(lp112
g22
ag34
aa(lp113
g22
ag38
aa(lp114
g22
ag42
aa(lp115
g22
ag46
aa(lp116
g22
ag50
aa(lp117
g22
ag54
aa(lp118
g22
ag58
aa(lp119
g22
ag62
aa(lp120
g66
ag22
aa(lp121
g22
ag70
aa(lp122
g74
ag22
aa(lp123
g22
ag78
aa(lp124
g26
ag30
aa(lp125
g26
ag34
aa(lp126
g26
ag38
aa(lp127
g26
ag42
aa(lp128
g26
ag46
aa(lp129
g26
ag50
aa(lp130
g26
ag54
aa(lp131
g26
ag58
aa(lp132
g26
ag62
aa(lp133
g26
ag66
aa(lp134
g26
ag70
aa(lp135
g26
ag74
aa(lp136
g26
ag78
aa(lp137
g30
ag34
aa(lp138
g30
ag38
aa(lp139
g30
ag42
aa(lp140
g30
ag46
aa(lp141
g30
ag50
aa(lp142
g30
ag54
aa(lp143
g58
ag30
aa(lp144
g30
ag62
aa(lp145
g66
ag30
aa(lp146
g30
ag70
aa(lp147
g74
ag30
aa(lp148
g78
ag30
aa(lp149
g38
ag34
aa(lp150
g42
ag34
aa(lp151
g46
ag34
aa(lp152
g50
ag34
aa(lp153
g34
ag54
aa(lp154
g58
ag34
aa(lp155
g62
ag34
aa(lp156
g66
ag34
aa(lp157
g34
ag70
aa(lp158
g74
ag34
aa(lp159
g78
ag34
aa(lp160
g38
ag42
aa(lp161
g46
ag38
aa(lp162
g50
ag38
aa(lp163
g54
ag38
aa(lp164
g38
ag58
aa(lp165
g62
ag38
aa(lp166
g66
ag38
aa(lp167
g38
ag70
aa(lp168
g74
ag38
aa(lp169
g78
ag38
aa(lp170
g46
ag42
aa(lp171
g50
ag42
aa(lp172
g54
ag42
aa(lp173
g42
ag58
aa(lp174
g62
ag42
aa(lp175
g66
ag42
aa(lp176
g42
ag70
aa(lp177
g74
ag42
aa(lp178
g78
ag42
aa(lp179
g46
ag50
aa(lp180
g46
ag54
aa(lp181
g46
ag58
aa(lp182
g62
ag46
aa(lp183
g66
ag46
aa(lp184
g46
ag70
aa(lp185
g74
ag46
aa(lp186
g78
ag46
aa(lp187
g54
ag50
aa(lp188
g50
ag58
aa(lp189
g62
ag50
aa(lp190
g66
ag50
aa(lp191
g50
ag70
aa(lp192
g74
ag50
aa(lp193
g78
ag50
aa(lp194
g58
ag54
aa(lp195
g62
ag54
aa(lp196
g66
ag54
aa(lp197
g54
ag70
aa(lp198
g74
ag54
aa(lp199
g78
ag54
aa(lp200
g62
ag58
aa(lp201
g66
ag58
aa(lp202
g58
ag70
aa(lp203
g58
ag74
aa(lp204
g78
ag58
aa(lp205
g66
ag62
aa(lp206
g62
ag70
aa(lp207
g74
ag62
aa(lp208
g78
ag62
aa(lp209
g66
ag70
aa(lp210
g66
ag74
aa(lp211
g66
ag78
aa(lp212
g74
ag70
aa(lp213
g78
ag70
aa(lp214
g74
ag78
aa.